target datalayout = "e-m:e-p270:32:32-p271:32:32-p272:64:64-i64:64-i128:128-f80:128-n8:16:32:64-S128"
target triple = "x86_64-pc-linux-gnu"

%"class.folly::symbolizer::ElfFile" = type { [512 x i8], i32, ptr, i64, %"struct.folly::symbolizer::ElfFileId", i64 }
%"struct.folly::symbolizer::ElfFileId" = type { i64, i64, i64, i64 }

; Function Attrs: mustprogress nounwind uwtable
define void @_ZN5folly10symbolizer7ElfFile5resetEv(ptr noundef nonnull align 8 dereferenceable(576) %0) #0 align 2 personality ptr @__gxx_personality_v0 {
  %2 = alloca ptr, align 8
  %3 = alloca %"struct.folly::symbolizer::ElfFileId", align 8
  store ptr %0, ptr %2, align 8, !tbaa !7
  %4 = load ptr, ptr %2, align 8
  %5 = getelementptr inbounds nuw %"class.folly::symbolizer::ElfFile", ptr %4, i32 0, i32 0
  %6 = getelementptr inbounds [512 x i8], ptr %5, i64 0, i64 0
  store i8 0, ptr %6, align 8, !tbaa !12
  %7 = getelementptr inbounds nuw %"class.folly::symbolizer::ElfFile", ptr %4, i32 0, i32 2
  %8 = load ptr, ptr %7, align 8, !tbaa !19
  %9 = icmp ne ptr %8, inttoptr (i64 -1 to ptr)
  br i1 %9, label %10, label %17

10:                                               ; preds = %1
  %11 = getelementptr inbounds nuw %"class.folly::symbolizer::ElfFile", ptr %4, i32 0, i32 2
  %12 = load ptr, ptr %11, align 8, !tbaa !19
  %13 = getelementptr inbounds nuw %"class.folly::symbolizer::ElfFile", ptr %4, i32 0, i32 3
  %14 = load i64, ptr %13, align 8, !tbaa !20
  %15 = call i32 @munmap(ptr noundef %12, i64 noundef %14) #24
  %16 = getelementptr inbounds nuw %"class.folly::symbolizer::ElfFile", ptr %4, i32 0, i32 2
  store ptr inttoptr (i64 -1 to ptr), ptr %16, align 8, !tbaa !19
  br label %17

17:                                               ; preds = %10, %1
  %18 = getelementptr inbounds nuw %"class.folly::symbolizer::ElfFile", ptr %4, i32 0, i32 1
  %19 = load i32, ptr %18, align 8, !tbaa !13
  %20 = icmp ne i32 %19, -1
  br i1 %20, label %21, label %27

21:                                               ; preds = %17
  %22 = getelementptr inbounds nuw %"class.folly::symbolizer::ElfFile", ptr %4, i32 0, i32 1
  %23 = load i32, ptr %22, align 8, !tbaa !13
  %24 = invoke i32 @close(i32 noundef %23)
          to label %25 unwind label %29

25:                                               ; preds = %21
  %26 = getelementptr inbounds nuw %"class.folly::symbolizer::ElfFile", ptr %4, i32 0, i32 1
  store i32 -1, ptr %26, align 8, !tbaa !13
  br label %27

27:                                               ; preds = %25, %17
  call void @llvm.lifetime.start.p0(i64 32, ptr %3) #24
  call void @llvm.memset.p0.i64(ptr align 8 %3, i8 0, i64 32, i1 false)
  %28 = getelementptr inbounds nuw %"class.folly::symbolizer::ElfFile", ptr %4, i32 0, i32 4
  call void @llvm.memcpy.p0.p0.i64(ptr align 8 %28, ptr align 8 %3, i64 32, i1 false), !tbaa.struct !45
  call void @llvm.lifetime.end.p0(i64 32, ptr %3) #24
  ret void

29:                                               ; preds = %21
  %30 = landingpad { ptr, i32 }
          catch ptr null
  %31 = extractvalue { ptr, i32 } %30, 0
  call void @__clang_call_terminate(ptr %31) #26
  unreachable
}