; Function Attrs: mustprogress nounwind uwtable
define void @_ZN5folly10symbolizer7ElfFile5resetEv(ptr noundef nonnull align 8 captures(none) dereferenceable(576) initializes((0, 1)) %0) local_unnamed_addr #4 align 2 personality ptr @__gxx_personality_v0 {
  store i8 0, ptr %0, align 8, !tbaa !7
  %2 = getelementptr inbounds nuw i8, ptr %0, i64 520
  %3 = load ptr, ptr %2, align 8, !tbaa !17
  %.not = icmp eq ptr %3, inttoptr (i64 -1 to ptr)
  br i1 %.not, label %8, label %4

4:                                                ; preds = %1
  %5 = getelementptr inbounds nuw i8, ptr %0, i64 528
  %6 = load i64, ptr %5, align 8, !tbaa !39
  %7 = tail call i32 @munmap(ptr noundef %3, i64 noundef %6) #27
  store ptr inttoptr (i64 -1 to ptr), ptr %2, align 8, !tbaa !17
  br label %8

8:                                                ; preds = %4, %1
  %9 = getelementptr inbounds nuw i8, ptr %0, i64 512
  %10 = load i32, ptr %9, align 8, !tbaa !10
  %.not2 = icmp eq i32 %10, -1
  br i1 %.not2, label %14, label %11

11:                                               ; preds = %8
  %12 = invoke i32 @close(i32 noundef %10)
          to label %13 unwind label %16

13:                                               ; preds = %11
  store i32 -1, ptr %9, align 8, !tbaa !10
  br label %14

14:                                               ; preds = %13, %8
  %15 = getelementptr inbounds nuw i8, ptr %0, i64 536
  tail call void @llvm.memset.p0.i64(ptr noundef nonnull align 8 dereferenceable(32) %15, i8 0, i64 32, i1 false)
  ret void

16:                                               ; preds = %11
  %17 = landingpad { ptr, i32 }
          catch ptr null
  %18 = extractvalue { ptr, i32 } %17, 0
  tail call void @__clang_call_terminate(ptr %18) #29
  unreachable
}